; ModuleID = 'source-C-CXX/41/43.cpp'
source_filename = "source-C-CXX/41/43.cpp"
target datalayout = "e-m:e-p270:32:32-p271:32:32-p272:64:64-i64:64-f80:128-n8:16:32:64-S128"
target triple = "x86_64-pc-linux-gnu"

%"class.std::ios_base::Init" = type { i8 }
%"class.std::basic_istream" = type { i32 (...)**, i64, %"class.std::basic_ios" }
%"class.std::basic_ios" = type { %"class.std::ios_base", %"class.std::basic_ostream"*, i8, i8, %"class.std::basic_streambuf"*, %"class.std::ctype"*, %"class.std::num_put"*, %"class.std::num_get"* }
%"class.std::ios_base" = type { i32 (...)**, i64, i64, i32, i32, i32, %"struct.std::ios_base::_Callback_list"*, %"struct.std::ios_base::_Words", [8 x %"struct.std::ios_base::_Words"], i32, %"struct.std::ios_base::_Words"*, %"class.std::locale" }
%"struct.std::ios_base::_Callback_list" = type { %"struct.std::ios_base::_Callback_list"*, void (i32, %"class.std::ios_base"*, i32)*, i32, i32 }
%"struct.std::ios_base::_Words" = type { i8*, i64 }
%"class.std::locale" = type { %"class.std::locale::_Impl"* }
%"class.std::locale::_Impl" = type { i32, %"class.std::locale::facet"**, i64, %"class.std::locale::facet"**, i8** }
%"class.std::locale::facet" = type <{ i32 (...)**, i32, [4 x i8] }>
%"class.std::basic_ostream" = type { i32 (...)**, %"class.std::basic_ios" }
%"class.std::basic_streambuf" = type { i32 (...)**, i8*, i8*, i8*, i8*, i8*, i8*, %"class.std::locale" }
%"class.std::ctype" = type <{ %"class.std::locale::facet.base", [4 x i8], %struct.__locale_struct*, i8, [7 x i8], i32*, i32*, i16*, i8, [256 x i8], [256 x i8], i8, [6 x i8] }>
%"class.std::locale::facet.base" = type <{ i32 (...)**, i32 }>
%struct.__locale_struct = type { [13 x %struct.__locale_data*], i16*, i32*, i32*, [13 x i8*] }
%struct.__locale_data = type opaque
%"class.std::num_put" = type { %"class.std::locale::facet.base", [4 x i8] }
%"class.std::num_get" = type { %"class.std::locale::facet.base", [4 x i8] }

@_ZStL8__ioinit = internal global %"class.std::ios_base::Init" zeroinitializer, align 1
@__dso_handle = external hidden global i8
@_ZSt3cin = external global %"class.std::basic_istream", align 8
@_ZSt4cout = external global %"class.std::basic_ostream", align 8
@.str = private unnamed_addr constant [2 x i8] c" \00", align 1
@llvm.global_ctors = appending global [1 x { i32, void ()*, i8* }] [{ i32, void ()*, i8* } { i32 65535, void ()* @_GLOBAL__sub_I_43.cpp, i8* null }]

declare void @_ZNSt8ios_base4InitC1Ev(%"class.std::ios_base::Init"* nonnull align 1 dereferenceable(1)) unnamed_addr #0

; Function Attrs: nounwind
declare void @_ZNSt8ios_base4InitD1Ev(%"class.std::ios_base::Init"* nonnull align 1 dereferenceable(1)) unnamed_addr #1

; Function Attrs: nofree nounwind
declare i32 @__cxa_atexit(void (i8*)*, i8*, i8*) local_unnamed_addr #2

; Function Attrs: mustprogress norecurse sspstrong uwtable
define dso_local i32 @main() local_unnamed_addr #3 {
  %1 = alloca i32, align 4
  %2 = alloca [100002 x i32], align 16
  %3 = alloca i32, align 4
  %4 = bitcast i32* %1 to i8*
  call void @llvm.lifetime.start.p0i8(i64 4, i8* nonnull %4) #7
  store i32 0, i32* %1, align 4, !tbaa !5
  %5 = bitcast [100002 x i32]* %2 to i8*
  call void @llvm.lifetime.start.p0i8(i64 400008, i8* nonnull %5) #7
  call void @llvm.memset.p0i8.i64(i8* noundef nonnull align 16 dereferenceable(400008) %5, i8 0, i64 400008, i1 false)
  %6 = bitcast i32* %3 to i8*
  call void @llvm.lifetime.start.p0i8(i64 4, i8* nonnull %6) #7
  store i32 0, i32* %3, align 4, !tbaa !5
  %7 = call nonnull align 8 dereferenceable(16) %"class.std::basic_istream"* @_ZNSirsERi(%"class.std::basic_istream"* nonnull align 8 dereferenceable(16) @_ZSt3cin, i32* nonnull align 4 dereferenceable(4) %1)
  %8 = load i32, i32* %1, align 4, !tbaa !5
  %9 = icmp slt i32 %8, 1
  br i1 %9, label %18, label %10

10:                                               ; preds = %0, %10
  %11 = phi i64 [ %14, %10 ], [ 1, %0 ]
  %12 = getelementptr inbounds [100002 x i32], [100002 x i32]* %2, i64 0, i64 %11
  %13 = call nonnull align 8 dereferenceable(16) %"class.std::basic_istream"* @_ZNSirsERi(%"class.std::basic_istream"* nonnull align 8 dereferenceable(16) @_ZSt3cin, i32* nonnull align 4 dereferenceable(4) %12)
  %14 = add nuw nsw i64 %11, 1
  %15 = load i32, i32* %1, align 4, !tbaa !5
  %16 = sext i32 %15 to i64
  %17 = icmp slt i64 %11, %16
  br i1 %17, label %10, label %18, !llvm.loop !9

18:                                               ; preds = %10, %0
  %19 = call nonnull align 8 dereferenceable(16) %"class.std::basic_istream"* @_ZNSirsERi(%"class.std::basic_istream"* nonnull align 8 dereferenceable(16) @_ZSt3cin, i32* nonnull align 4 dereferenceable(4) %3)
  %20 = load i32, i32* %1, align 4, !tbaa !5
  %21 = load i32, i32* %3, align 4
  %22 = icmp slt i32 %20, 1
  br i1 %22, label %134, label %23

23:                                               ; preds = %18
  %24 = add nuw i32 %20, 1
  %25 = sext i32 %24 to i64
  br label %35

26:                                               ; preds = %118
  %27 = icmp sgt i32 %20, %120
  br i1 %27, label %28, label %134

28:                                               ; preds = %26
  %29 = getelementptr inbounds [100002 x i32], [100002 x i32]* %2, i64 0, i64 1
  %30 = load i32, i32* %29, align 4, !tbaa !5
  %31 = call nonnull align 8 dereferenceable(8) %"class.std::basic_ostream"* @_ZNSolsEi(%"class.std::basic_ostream"* nonnull align 8 dereferenceable(8) @_ZSt4cout, i32 %30)
  %32 = load i32, i32* %1, align 4, !tbaa !5
  %33 = sub nsw i32 %32, %120
  %34 = icmp sgt i32 %33, 1
  br i1 %34, label %123, label %134

35:                                               ; preds = %23, %118
  %36 = phi i32 [ %120, %118 ], [ 0, %23 ]
  %37 = phi i32 [ %121, %118 ], [ 1, %23 ]
  %38 = sext i32 %37 to i64
  %39 = getelementptr inbounds [100002 x i32], [100002 x i32]* %2, i64 0, i64 %38
  %40 = load i32, i32* %39, align 4, !tbaa !5
  %41 = icmp eq i32 %40, %21
  br i1 %41, label %42, label %118

42:                                               ; preds = %35
  %43 = icmp sgt i32 %37, %20
  br i1 %43, label %115, label %44

44:                                               ; preds = %42
  %45 = sub nsw i64 %25, %38
  %46 = icmp ult i64 %45, 8
  br i1 %46, label %106, label %47

47:                                               ; preds = %44
  %48 = and i64 %45, -8
  %49 = add nsw i64 %48, %38
  %50 = add nsw i64 %48, -8
  %51 = lshr exact i64 %50, 3
  %52 = add nuw nsw i64 %51, 1
  %53 = and i64 %52, 1
  %54 = icmp eq i64 %50, 0
  br i1 %54, label %88, label %55

55:                                               ; preds = %47
  %56 = and i64 %52, 4611686018427387902
  br label %57

57:                                               ; preds = %57, %55
  %58 = phi i64 [ 0, %55 ], [ %85, %57 ]
  %59 = phi i64 [ %56, %55 ], [ %86, %57 ]
  %60 = add i64 %58, %38
  %61 = add nsw i64 %60, 1
  %62 = getelementptr inbounds [100002 x i32], [100002 x i32]* %2, i64 0, i64 %61
  %63 = bitcast i32* %62 to <4 x i32>*
  %64 = load <4 x i32>, <4 x i32>* %63, align 4, !tbaa !5
  %65 = getelementptr inbounds i32, i32* %62, i64 4
  %66 = bitcast i32* %65 to <4 x i32>*
  %67 = load <4 x i32>, <4 x i32>* %66, align 4, !tbaa !5
  %68 = getelementptr inbounds [100002 x i32], [100002 x i32]* %2, i64 0, i64 %60
  %69 = bitcast i32* %68 to <4 x i32>*
  store <4 x i32> %64, <4 x i32>* %69, align 4, !tbaa !5
  %70 = getelementptr inbounds i32, i32* %68, i64 4
  %71 = bitcast i32* %70 to <4 x i32>*
  store <4 x i32> %67, <4 x i32>* %71, align 4, !tbaa !5
  %72 = or i64 %58, 8
  %73 = add i64 %72, %38
  %74 = add nsw i64 %73, 1
  %75 = getelementptr inbounds [100002 x i32], [100002 x i32]* %2, i64 0, i64 %74
  %76 = bitcast i32* %75 to <4 x i32>*
  %77 = load <4 x i32>, <4 x i32>* %76, align 4, !tbaa !5
  %78 = getelementptr inbounds i32, i32* %75, i64 4
  %79 = bitcast i32* %78 to <4 x i32>*
  %80 = load <4 x i32>, <4 x i32>* %79, align 4, !tbaa !5
  %81 = getelementptr inbounds [100002 x i32], [100002 x i32]* %2, i64 0, i64 %73
  %82 = bitcast i32* %81 to <4 x i32>*
  store <4 x i32> %77, <4 x i32>* %82, align 4, !tbaa !5
  %83 = getelementptr inbounds i32, i32* %81, i64 4
  %84 = bitcast i32* %83 to <4 x i32>*
  store <4 x i32> %80, <4 x i32>* %84, align 4, !tbaa !5
  %85 = add nuw i64 %58, 16
  %86 = add i64 %59, -2
  %87 = icmp eq i64 %86, 0
  br i1 %87, label %88, label %57, !llvm.loop !11

88:                                               ; preds = %57, %47
  %89 = phi i64 [ 0, %47 ], [ %85, %57 ]
  %90 = icmp eq i64 %53, 0
  br i1 %90, label %104, label %91

91:                                               ; preds = %88
  %92 = add i64 %89, %38
  %93 = add nsw i64 %92, 1
  %94 = getelementptr inbounds [100002 x i32], [100002 x i32]* %2, i64 0, i64 %93
  %95 = bitcast i32* %94 to <4 x i32>*
  %96 = load <4 x i32>, <4 x i32>* %95, align 4, !tbaa !5
  %97 = getelementptr inbounds i32, i32* %94, i64 4
  %98 = bitcast i32* %97 to <4 x i32>*
  %99 = load <4 x i32>, <4 x i32>* %98, align 4, !tbaa !5
  %100 = getelementptr inbounds [100002 x i32], [100002 x i32]* %2, i64 0, i64 %92
  %101 = bitcast i32* %100 to <4 x i32>*
  store <4 x i32> %96, <4 x i32>* %101, align 4, !tbaa !5
  %102 = getelementptr inbounds i32, i32* %100, i64 4
  %103 = bitcast i32* %102 to <4 x i32>*
  store <4 x i32> %99, <4 x i32>* %103, align 4, !tbaa !5
  br label %104

104:                                              ; preds = %88, %91
  %105 = icmp eq i64 %45, %48
  br i1 %105, label %115, label %106

106:                                              ; preds = %44, %104
  %107 = phi i64 [ %38, %44 ], [ %49, %104 ]
  br label %108

108:                                              ; preds = %106, %108
  %109 = phi i64 [ %110, %108 ], [ %107, %106 ]
  %110 = add nsw i64 %109, 1
  %111 = getelementptr inbounds [100002 x i32], [100002 x i32]* %2, i64 0, i64 %110
  %112 = load i32, i32* %111, align 4, !tbaa !5
  %113 = getelementptr inbounds [100002 x i32], [100002 x i32]* %2, i64 0, i64 %109
  store i32 %112, i32* %113, align 4, !tbaa !5
  %114 = icmp eq i64 %110, %25
  br i1 %114, label %115, label %108, !llvm.loop !13

115:                                              ; preds = %108, %104, %42
  %116 = add nsw i32 %36, 1
  %117 = add nsw i32 %37, -1
  br label %118

118:                                              ; preds = %35, %115
  %119 = phi i32 [ %117, %115 ], [ %37, %35 ]
  %120 = phi i32 [ %116, %115 ], [ %36, %35 ]
  %121 = add nsw i32 %119, 1
  %122 = icmp slt i32 %119, %20
  br i1 %122, label %35, label %26, !llvm.loop !15

123:                                              ; preds = %28, %123
  %124 = phi i64 [ %129, %123 ], [ 2, %28 ]
  %125 = call nonnull align 8 dereferenceable(8) %"class.std::basic_ostream"* @_ZSt16__ostream_insertIcSt11char_traitsIcEERSt13basic_ostreamIT_T0_ES6_PKS3_l(%"class.std::basic_ostream"* nonnull align 8 dereferenceable(8) @_ZSt4cout, i8* nonnull getelementptr inbounds ([2 x i8], [2 x i8]* @.str, i64 0, i64 0), i64 1)
  %126 = getelementptr inbounds [100002 x i32], [100002 x i32]* %2, i64 0, i64 %124
  %127 = load i32, i32* %126, align 4, !tbaa !5
  %128 = call nonnull align 8 dereferenceable(8) %"class.std::basic_ostream"* @_ZNSolsEi(%"class.std::basic_ostream"* nonnull align 8 dereferenceable(8) @_ZSt4cout, i32 %127)
  %129 = add nuw nsw i64 %124, 1
  %130 = load i32, i32* %1, align 4, !tbaa !5
  %131 = sub nsw i32 %130, %120
  %132 = sext i32 %131 to i64
  %133 = icmp slt i64 %124, %132
  br i1 %133, label %123, label %134, !llvm.loop !16

134:                                              ; preds = %123, %18, %28, %26
  call void @llvm.lifetime.end.p0i8(i64 4, i8* nonnull %6) #7
  call void @llvm.lifetime.end.p0i8(i64 400008, i8* nonnull %5) #7
  call void @llvm.lifetime.end.p0i8(i64 4, i8* nonnull %4) #7
  ret i32 0
}

; Function Attrs: argmemonly mustprogress nofree nosync nounwind willreturn
declare void @llvm.lifetime.start.p0i8(i64 immarg, i8* nocapture) #4

; Function Attrs: argmemonly mustprogress nofree nounwind willreturn writeonly
declare void @llvm.memset.p0i8.i64(i8* nocapture writeonly, i8, i64, i1 immarg) #5

declare nonnull align 8 dereferenceable(16) %"class.std::basic_istream"* @_ZNSirsERi(%"class.std::basic_istream"* nonnull align 8 dereferenceable(16), i32* nonnull align 4 dereferenceable(4)) local_unnamed_addr #0

declare nonnull align 8 dereferenceable(8) %"class.std::basic_ostream"* @_ZNSolsEi(%"class.std::basic_ostream"* nonnull align 8 dereferenceable(8), i32) local_unnamed_addr #0

; Function Attrs: argmemonly mustprogress nofree nosync nounwind willreturn
declare void @llvm.lifetime.end.p0i8(i64 immarg, i8* nocapture) #4

declare nonnull align 8 dereferenceable(8) %"class.std::basic_ostream"* @_ZSt16__ostream_insertIcSt11char_traitsIcEERSt13basic_ostreamIT_T0_ES6_PKS3_l(%"class.std::basic_ostream"* nonnull align 8 dereferenceable(8), i8*, i64) local_unnamed_addr #0

; Function Attrs: sspstrong uwtable
define internal void @_GLOBAL__sub_I_43.cpp() #6 section ".text.startup" {
  tail call void @_ZNSt8ios_base4InitC1Ev(%"class.std::ios_base::Init"* nonnull align 1 dereferenceable(1) @_ZStL8__ioinit)
  %1 = tail call i32 @__cxa_atexit(void (i8*)* bitcast (void (%"class.std::ios_base::Init"*)* @_ZNSt8ios_base4InitD1Ev to void (i8*)*), i8* getelementptr inbounds (%"class.std::ios_base::Init", %"class.std::ios_base::Init"* @_ZStL8__ioinit, i64 0, i32 0), i8* nonnull @__dso_handle) #7
  ret void
}


!llvm.module.flags = !{!0, !1, !2, !3}
!llvm.ident = !{!4}

!0 = !{i32 1, !"wchar_size", i32 4}
!1 = !{i32 7, !"PIC Level", i32 2}
!2 = !{i32 7, !"PIE Level", i32 2}
!3 = !{i32 7, !"uwtable", i32 1}
!4 = !{!"clang version 13.0.0"}
!5 = !{!6, !6, i64 0}
!6 = !{!"int", !7, i64 0}
!7 = !{!"omnipotent char", !8, i64 0}
!8 = !{!"Simple C++ TBAA"}
!9 = distinct !{!9, !10}
!10 = !{!"llvm.loop.mustprogress"}
!11 = distinct !{!11, !10, !12}
!12 = !{!"llvm.loop.isvectorized", i32 1}
!13 = distinct !{!13, !10, !14, !12}
!14 = !{!"llvm.loop.unroll.runtime.disable"}
!15 = distinct !{!15, !10}
!16 = distinct !{!16, !10, !17}
!17 = !{!"llvm.loop.peeled.count", i32 1}
